target datalayout = "e-m:e-p270:32:32-p271:32:32-p272:64:64-i64:64-i128:128-f80:128-n8:16:32:64-S128"
target triple = "x86_64-pc-linux-gnu"

%"class.Ipopt::ReferencedObject.base" = type <{ ptr, i32 }>
%"class.Ipopt::SmartPtr" = type { ptr }
%"class.Ipopt::RegisteredOptions" = type { %"class.Ipopt::ReferencedObject.base", %"class.std::map", %"class.std::map.16", i32, %"class.Ipopt::SmartPtr" }
%"class.std::map" = type { %"class.std::_Rb_tree" }
%"class.std::_Rb_tree" = type { %"struct.std::_Rb_tree<std::__cxx11::basic_string<char>, std::pair<const std::__cxx11::basic_string<char>, Ipopt::SmartPtr<Ipopt::RegisteredOption>>, std::_Select1st<std::pair<const std::__cxx11::basic_string<char>, Ipopt::SmartPtr<Ipopt::RegisteredOption>>>, std::less<std::__cxx11::basic_string<char>>>::_Rb_tree_impl" }
%"struct.std::_Rb_tree<std::__cxx11::basic_string<char>, std::pair<const std::__cxx11::basic_string<char>, Ipopt::SmartPtr<Ipopt::RegisteredOption>>, std::_Select1st<std::pair<const std::__cxx11::basic_string<char>, Ipopt::SmartPtr<Ipopt::RegisteredOption>>>, std::less<std::__cxx11::basic_string<char>>>::_Rb_tree_impl" = type { [8 x i8], %"struct.std::_Rb_tree_header" }
%"struct.std::_Rb_tree_header" = type { %"struct.std::_Rb_tree_node_base", i64 }
%"struct.std::_Rb_tree_node_base" = type { i32, ptr, ptr, ptr }
%"class.std::map.16" = type { %"class.std::_Rb_tree.17" }
%"class.std::_Rb_tree.17" = type { %"struct.std::_Rb_tree<std::__cxx11::basic_string<char>, std::pair<const std::__cxx11::basic_string<char>, Ipopt::SmartPtr<Ipopt::RegisteredCategory>>, std::_Select1st<std::pair<const std::__cxx11::basic_string<char>, Ipopt::SmartPtr<Ipopt::RegisteredCategory>>>, std::less<std::__cxx11::basic_string<char>>>::_Rb_tree_impl" }
%"struct.std::_Rb_tree<std::__cxx11::basic_string<char>, std::pair<const std::__cxx11::basic_string<char>, Ipopt::SmartPtr<Ipopt::RegisteredCategory>>, std::_Select1st<std::pair<const std::__cxx11::basic_string<char>, Ipopt::SmartPtr<Ipopt::RegisteredCategory>>>, std::less<std::__cxx11::basic_string<char>>>::_Rb_tree_impl" = type { [8 x i8], %"struct.std::_Rb_tree_header" }
%"class.Ipopt::SmartPtr.21" = type { ptr }
%"class.Ipopt::ReferencedObject" = type <{ ptr, i32, [4 x i8] }>

; Function Attrs: inlinehint mustprogress nounwind uwtable
define linkonce_odr noundef i32 @_ZNK5Ipopt16ReferencedObject14ReferenceCountEv(ptr noundef nonnull align 8 dereferenceable(12) %0) #7 comdat align 2 {
  %2 = alloca ptr, align 8
  store ptr %0, ptr %2, align 8, !tbaa !200
  %3 = load ptr, ptr %2, align 8
  %4 = getelementptr inbounds nuw %"class.Ipopt::ReferencedObject", ptr %3, i32 0, i32 1
  %5 = load i32, ptr %4, align 8, !tbaa !202
  ret i32 %5
}

; Function Attrs: inlinehint mustprogress nounwind uwtable
define linkonce_odr void @_ZNK5Ipopt16ReferencedObject10ReleaseRefEPKNS_10ReferencerE(ptr noundef nonnull align 8 dereferenceable(12) %0, ptr noundef %1) #7 comdat align 2 {
  %3 = alloca ptr, align 8
  %4 = alloca ptr, align 8
  store ptr %0, ptr %3, align 8, !tbaa !200
  store ptr %1, ptr %4, align 8, !tbaa !221
  %5 = load ptr, ptr %3, align 8
  %6 = getelementptr inbounds nuw %"class.Ipopt::ReferencedObject", ptr %5, i32 0, i32 1
  %7 = load i32, ptr %6, align 8, !tbaa !202
  %8 = add nsw i32 %7, -1
  store i32 %8, ptr %6, align 8, !tbaa !202
  ret void
}

; Function Attrs: inlinehint mustprogress nounwind uwtable
define linkonce_odr void @_ZNK5Ipopt16ReferencedObject6AddRefEPKNS_10ReferencerE(ptr noundef nonnull align 8 dereferenceable(12) %0, ptr noundef %1) #7 comdat align 2 {
  %3 = alloca ptr, align 8
  %4 = alloca ptr, align 8
  store ptr %0, ptr %3, align 8, !tbaa !200
  store ptr %1, ptr %4, align 8, !tbaa !221
  %5 = load ptr, ptr %3, align 8
  %6 = getelementptr inbounds nuw %"class.Ipopt::ReferencedObject", ptr %5, i32 0, i32 1
  %7 = load i32, ptr %6, align 8, !tbaa !202
  %8 = add nsw i32 %7, 1
  store i32 %8, ptr %6, align 8, !tbaa !202
  ret void
}

; Function Attrs: mustprogress nounwind uwtable
define linkonce_odr void @_ZN5Ipopt8SmartPtrINS_16RegisteredOptionEE15ReleasePointer_Ev(ptr noundef nonnull align 8 dereferenceable(8) %0) #6 comdat align 2 {
  %2 = alloca ptr, align 8
  store ptr %0, ptr %2, align 8, !tbaa !105
  %3 = load ptr, ptr %2, align 8
  %4 = getelementptr inbounds nuw %"class.Ipopt::SmartPtr.21", ptr %3, i32 0, i32 0
  %5 = load ptr, ptr %4, align 8, !tbaa !113
  %6 = icmp ne ptr %5, null
  br i1 %6, label %7, label %25

7:                                                ; preds = %1
  %8 = getelementptr inbounds nuw %"class.Ipopt::SmartPtr.21", ptr %3, i32 0, i32 0
  %9 = load ptr, ptr %8, align 8, !tbaa !113
  call void @_ZNK5Ipopt16ReferencedObject10ReleaseRefEPKNS_10ReferencerE(ptr noundef nonnull align 8 dereferenceable(12) %9, ptr noundef %3)
  %10 = getelementptr inbounds nuw %"class.Ipopt::SmartPtr.21", ptr %3, i32 0, i32 0
  %11 = load ptr, ptr %10, align 8, !tbaa !113
  %12 = call noundef i32 @_ZNK5Ipopt16ReferencedObject14ReferenceCountEv(ptr noundef nonnull align 8 dereferenceable(12) %11)
  %13 = icmp eq i32 %12, 0
  br i1 %13, label %14, label %24

14:                                               ; preds = %7
  %15 = getelementptr inbounds nuw %"class.Ipopt::SmartPtr.21", ptr %3, i32 0, i32 0
  %16 = load ptr, ptr %15, align 8, !tbaa !113
  %17 = icmp eq ptr %16, null
  br i1 %17, label %22, label %18

18:                                               ; preds = %14
  %19 = load ptr, ptr %16, align 8, !tbaa !31
  %20 = getelementptr inbounds ptr, ptr %19, i64 1
  %21 = load ptr, ptr %20, align 8
  call void %21(ptr noundef nonnull align 8 dereferenceable(220) %16) #3
  br label %22

22:                                               ; preds = %18, %14
  %23 = getelementptr inbounds nuw %"class.Ipopt::SmartPtr.21", ptr %3, i32 0, i32 0
  store ptr null, ptr %23, align 8, !tbaa !113
  br label %24

24:                                               ; preds = %22, %7
  br label %25

25:                                               ; preds = %24, %1
  ret void
}

; Function Attrs: mustprogress uwtable
define linkonce_odr noundef nonnull align 8 dereferenceable(8) ptr @_ZN5Ipopt8SmartPtrINS_16RegisteredOptionEE14SetFromRawPtr_EPS1_(ptr noundef nonnull align 8 dereferenceable(8) %0, ptr noundef %1) #4 comdat align 2 {
  %3 = alloca ptr, align 8
  %4 = alloca ptr, align 8
  store ptr %0, ptr %3, align 8, !tbaa !105
  store ptr %1, ptr %4, align 8, !tbaa !3
  %5 = load ptr, ptr %3, align 8
  %6 = load ptr, ptr %4, align 8, !tbaa !3
  %7 = icmp ne ptr %6, null
  br i1 %7, label %8, label %10

8:                                                ; preds = %2
  %9 = load ptr, ptr %4, align 8, !tbaa !3
  call void @_ZNK5Ipopt16ReferencedObject6AddRefEPKNS_10ReferencerE(ptr noundef nonnull align 8 dereferenceable(12) %9, ptr noundef %5)
  br label %10

10:                                               ; preds = %8, %2
  call void @_ZN5Ipopt8SmartPtrINS_16RegisteredOptionEE15ReleasePointer_Ev(ptr noundef nonnull align 8 dereferenceable(8) %5)
  %11 = load ptr, ptr %4, align 8, !tbaa !3
  %12 = getelementptr inbounds nuw %"class.Ipopt::SmartPtr.21", ptr %5, i32 0, i32 0
  store ptr %11, ptr %12, align 8, !tbaa !113
  ret ptr %5
}

; Function Attrs: mustprogress nounwind uwtable
define linkonce_odr void @_ZN5Ipopt8SmartPtrINS_16RegisteredOptionEED2Ev(ptr noundef nonnull align 8 dereferenceable(8) %0) unnamed_addr #6 comdat align 2 {
  %2 = alloca ptr, align 8
  store ptr %0, ptr %2, align 8, !tbaa !105
  %3 = load ptr, ptr %2, align 8
  call void @_ZN5Ipopt8SmartPtrINS_16RegisteredOptionEE15ReleasePointer_Ev(ptr noundef nonnull align 8 dereferenceable(8) %3)
  ret void
}

; Function Attrs: mustprogress nounwind uwtable
define linkonce_odr noundef ptr @_ZNK5Ipopt8SmartPtrINS_16RegisteredOptionEEptEv(ptr noundef nonnull align 8 dereferenceable(8) %0) #6 comdat align 2 {
  %2 = alloca ptr, align 8
  store ptr %0, ptr %2, align 8, !tbaa !105
  %3 = load ptr, ptr %2, align 8
  %4 = getelementptr inbounds nuw %"class.Ipopt::SmartPtr.21", ptr %3, i32 0, i32 0
  %5 = load ptr, ptr %4, align 8, !tbaa !113
  ret ptr %5
}

; Function Attrs: mustprogress uwtable
define linkonce_odr void @_ZN5Ipopt8SmartPtrINS_16RegisteredOptionEEC2EPS1_(ptr noundef nonnull align 8 dereferenceable(8) %0, ptr noundef %1) unnamed_addr #4 comdat align 2 {
  %3 = alloca ptr, align 8
  %4 = alloca ptr, align 8
  store ptr %0, ptr %3, align 8, !tbaa !105
  store ptr %1, ptr %4, align 8, !tbaa !3
  %5 = load ptr, ptr %3, align 8
  %6 = getelementptr inbounds nuw %"class.Ipopt::SmartPtr.21", ptr %5, i32 0, i32 0
  store ptr null, ptr %6, align 8, !tbaa !113
  %7 = load ptr, ptr %4, align 8, !tbaa !3
  %8 = call noundef nonnull align 8 dereferenceable(8) ptr @_ZN5Ipopt8SmartPtrINS_16RegisteredOptionEE14SetFromRawPtr_EPS1_(ptr noundef nonnull align 8 dereferenceable(8) %5, ptr noundef %7)
  ret void
}

; Function Attrs: mustprogress uwtable
define void @_ZN5Ipopt17RegisteredOptions16AddStringOption4ERKNSt7__cxx1112basic_stringIcSt11char_traitsIcESaIcEEES8_S8_S8_S8_S8_S8_S8_S8_S8_S8_S8_b(ptr noundef nonnull align 8 dereferenceable(128) %0, ptr noundef nonnull align 8 dereferenceable(32) %1, ptr noundef nonnull align 8 dereferenceable(32) %2, ptr noundef nonnull align 8 dereferenceable(32) %3, ptr noundef nonnull align 8 dereferenceable(32) %4, ptr noundef nonnull align 8 dereferenceable(32) %5, ptr noundef nonnull align 8 dereferenceable(32) %6, ptr noundef nonnull align 8 dereferenceable(32) %7, ptr noundef nonnull align 8 dereferenceable(32) %8, ptr noundef nonnull align 8 dereferenceable(32) %9, ptr noundef nonnull align 8 dereferenceable(32) %10, ptr noundef nonnull align 8 dereferenceable(32) %11, ptr noundef nonnull align 8 dereferenceable(32) %12, i1 noundef zeroext %13) unnamed_addr #4 align 2 personality ptr @__gxx_personality_v0 {
  %15 = alloca ptr, align 8
  %16 = alloca ptr, align 8
  %17 = alloca ptr, align 8
  %18 = alloca ptr, align 8
  %19 = alloca ptr, align 8
  %20 = alloca ptr, align 8
  %21 = alloca ptr, align 8
  %22 = alloca ptr, align 8
  %23 = alloca ptr, align 8
  %24 = alloca ptr, align 8
  %25 = alloca ptr, align 8
  %26 = alloca ptr, align 8
  %27 = alloca ptr, align 8
  %28 = alloca i8, align 1
  %29 = alloca %"class.Ipopt::SmartPtr.21", align 8
  %30 = alloca ptr, align 8
  %31 = alloca i32, align 4
  %32 = alloca i32, align 4
  store ptr %0, ptr %15, align 8, !tbaa !90
  store ptr %1, ptr %16, align 8, !tbaa !44
  store ptr %2, ptr %17, align 8, !tbaa !44
  store ptr %3, ptr %18, align 8, !tbaa !44
  store ptr %4, ptr %19, align 8, !tbaa !44
  store ptr %5, ptr %20, align 8, !tbaa !44
  store ptr %6, ptr %21, align 8, !tbaa !44
  store ptr %7, ptr %22, align 8, !tbaa !44
  store ptr %8, ptr %23, align 8, !tbaa !44
  store ptr %9, ptr %24, align 8, !tbaa !44
  store ptr %10, ptr %25, align 8, !tbaa !44
  store ptr %11, ptr %26, align 8, !tbaa !44
  store ptr %12, ptr %27, align 8, !tbaa !44
  %33 = zext i1 %13 to i8
  store i8 %33, ptr %28, align 1, !tbaa !63
  %34 = load ptr, ptr %15, align 8
  call void @llvm.lifetime.start.p0(i64 8, ptr %29) #3
  %35 = call noalias noundef nonnull ptr @_Znwm(i64 noundef 224) #20
  %36 = load ptr, ptr %16, align 8, !tbaa !44
  %37 = load ptr, ptr %17, align 8, !tbaa !44
  %38 = load ptr, ptr %27, align 8, !tbaa !44
  %39 = getelementptr inbounds nuw %"class.Ipopt::RegisteredOptions", ptr %34, i32 0, i32 4
  %40 = getelementptr inbounds nuw %"class.Ipopt::RegisteredOptions", ptr %34, i32 0, i32 3
  %41 = load i32, ptr %40, align 8, !tbaa !119
  %42 = add nsw i32 %41, 1
  store i32 %42, ptr %40, align 8, !tbaa !119
  %43 = load i8, ptr %28, align 1, !tbaa !63, !range !29, !noundef !30
  %44 = trunc i8 %43 to i1
  invoke void @_ZN5Ipopt16RegisteredOptionC2ERKNSt7__cxx1112basic_stringIcSt11char_traitsIcESaIcEEES8_S8_RKNS_8SmartPtrINS_18RegisteredCategoryEEEib(ptr noundef nonnull align 8 dereferenceable(220) %35, ptr noundef nonnull align 8 dereferenceable(32) %36, ptr noundef nonnull align 8 dereferenceable(32) %37, ptr noundef nonnull align 8 dereferenceable(32) %38, ptr noundef nonnull align 8 dereferenceable(8) %39, i32 noundef %41, i1 noundef zeroext %44)
          to label %45 unwind label %92

45:                                               ; preds = %14
  call void @_ZN5Ipopt8SmartPtrINS_16RegisteredOptionEEC2EPS1_(ptr noundef nonnull align 8 dereferenceable(8) %29, ptr noundef %35)
  %46 = invoke noundef ptr @_ZNK5Ipopt8SmartPtrINS_16RegisteredOptionEEptEv(ptr noundef nonnull align 8 dereferenceable(8) %29)
          to label %47 unwind label %96

47:                                               ; preds = %45
  call void @llvm.lifetime.start.p0(i64 4, ptr %32) #3
  store i32 2, ptr %32, align 4, !tbaa !132
  %48 = load ptr, ptr %46, align 8, !tbaa !31
  %49 = getelementptr inbounds ptr, ptr %48, i64 10
  %50 = load ptr, ptr %49, align 8
  invoke void %50(ptr noundef nonnull align 8 dereferenceable(220) %46, ptr noundef nonnull align 4 dereferenceable(4) %32)
          to label %51 unwind label %100

51:                                               ; preds = %47
  call void @llvm.lifetime.end.p0(i64 4, ptr %32) #3
  %52 = invoke noundef ptr @_ZNK5Ipopt8SmartPtrINS_16RegisteredOptionEEptEv(ptr noundef nonnull align 8 dereferenceable(8) %29)
          to label %53 unwind label %96

53:                                               ; preds = %51
  %54 = load ptr, ptr %18, align 8, !tbaa !44
  %55 = load ptr, ptr %52, align 8, !tbaa !31
  %56 = getelementptr inbounds ptr, ptr %55, i64 33
  %57 = load ptr, ptr %56, align 8
  invoke void %57(ptr noundef nonnull align 8 dereferenceable(220) %52, ptr noundef nonnull align 8 dereferenceable(32) %54)
          to label %58 unwind label %96

58:                                               ; preds = %53
  %59 = invoke noundef ptr @_ZNK5Ipopt8SmartPtrINS_16RegisteredOptionEEptEv(ptr noundef nonnull align 8 dereferenceable(8) %29)
          to label %60 unwind label %96

60:                                               ; preds = %58
  %61 = load ptr, ptr %19, align 8, !tbaa !44
  %62 = load ptr, ptr %20, align 8, !tbaa !44
  %63 = load ptr, ptr %59, align 8, !tbaa !31
  %64 = getelementptr inbounds ptr, ptr %63, i64 26
  %65 = load ptr, ptr %64, align 8
  invoke void %65(ptr noundef nonnull align 8 dereferenceable(220) %59, ptr noundef nonnull align 8 dereferenceable(32) %61, ptr noundef nonnull align 8 dereferenceable(32) %62)
          to label %66 unwind label %96

66:                                               ; preds = %60
  %67 = invoke noundef ptr @_ZNK5Ipopt8SmartPtrINS_16RegisteredOptionEEptEv(ptr noundef nonnull align 8 dereferenceable(8) %29)
          to label %68 unwind label %96

68:                                               ; preds = %66
  %69 = load ptr, ptr %21, align 8, !tbaa !44
  %70 = load ptr, ptr %22, align 8, !tbaa !44
  %71 = load ptr, ptr %67, align 8, !tbaa !31
  %72 = getelementptr inbounds ptr, ptr %71, i64 26
  %73 = load ptr, ptr %72, align 8
  invoke void %73(ptr noundef nonnull align 8 dereferenceable(220) %67, ptr noundef nonnull align 8 dereferenceable(32) %69, ptr noundef nonnull align 8 dereferenceable(32) %70)
          to label %74 unwind label %96

74:                                               ; preds = %68
  %75 = invoke noundef ptr @_ZNK5Ipopt8SmartPtrINS_16RegisteredOptionEEptEv(ptr noundef nonnull align 8 dereferenceable(8) %29)
          to label %76 unwind label %96

76:                                               ; preds = %74
  %77 = load ptr, ptr %23, align 8, !tbaa !44
  %78 = load ptr, ptr %24, align 8, !tbaa !44
  %79 = load ptr, ptr %75, align 8, !tbaa !31
  %80 = getelementptr inbounds ptr, ptr %79, i64 26
  %81 = load ptr, ptr %80, align 8
  invoke void %81(ptr noundef nonnull align 8 dereferenceable(220) %75, ptr noundef nonnull align 8 dereferenceable(32) %77, ptr noundef nonnull align 8 dereferenceable(32) %78)
          to label %82 unwind label %96

82:                                               ; preds = %76
  %83 = invoke noundef ptr @_ZNK5Ipopt8SmartPtrINS_16RegisteredOptionEEptEv(ptr noundef nonnull align 8 dereferenceable(8) %29)
          to label %84 unwind label %96

84:                                               ; preds = %82
  %85 = load ptr, ptr %25, align 8, !tbaa !44
  %86 = load ptr, ptr %26, align 8, !tbaa !44
  %87 = load ptr, ptr %83, align 8, !tbaa !31
  %88 = getelementptr inbounds ptr, ptr %87, i64 26
  %89 = load ptr, ptr %88, align 8
  invoke void %89(ptr noundef nonnull align 8 dereferenceable(220) %83, ptr noundef nonnull align 8 dereferenceable(32) %85, ptr noundef nonnull align 8 dereferenceable(32) %86)
          to label %90 unwind label %96

90:                                               ; preds = %84
  invoke void @_ZN5Ipopt17RegisteredOptions9AddOptionERKNS_8SmartPtrINS_16RegisteredOptionEEE(ptr noundef nonnull align 8 dereferenceable(128) %34, ptr noundef nonnull align 8 dereferenceable(8) %29)
          to label %91 unwind label %96

91:                                               ; preds = %90
  call void @_ZN5Ipopt8SmartPtrINS_16RegisteredOptionEED2Ev(ptr noundef nonnull align 8 dereferenceable(8) %29) #3
  call void @llvm.lifetime.end.p0(i64 8, ptr %29) #3
  ret void

92:                                               ; preds = %14
  %93 = landingpad { ptr, i32 }
          cleanup
  %94 = extractvalue { ptr, i32 } %93, 0
  store ptr %94, ptr %30, align 8
  %95 = extractvalue { ptr, i32 } %93, 1
  store i32 %95, ptr %31, align 4
  call void @_ZdlPvm(ptr noundef %35, i64 noundef 224) #21
  br label %105

96:                                               ; preds = %90, %84, %82, %76, %74, %68, %66, %60, %58, %53, %51, %45
  %97 = landingpad { ptr, i32 }
          cleanup
  %98 = extractvalue { ptr, i32 } %97, 0
  store ptr %98, ptr %30, align 8
  %99 = extractvalue { ptr, i32 } %97, 1
  store i32 %99, ptr %31, align 4
  br label %104

100:                                              ; preds = %47
  %101 = landingpad { ptr, i32 }
          cleanup
  %102 = extractvalue { ptr, i32 } %101, 0
  store ptr %102, ptr %30, align 8
  %103 = extractvalue { ptr, i32 } %101, 1
  store i32 %103, ptr %31, align 4
  call void @llvm.lifetime.end.p0(i64 4, ptr %32) #3
  br label %104

104:                                              ; preds = %100, %96
  call void @_ZN5Ipopt8SmartPtrINS_16RegisteredOptionEED2Ev(ptr noundef nonnull align 8 dereferenceable(8) %29) #3
  br label %105

105:                                              ; preds = %104, %92
  call void @llvm.lifetime.end.p0(i64 8, ptr %29) #3
  br label %106

106:                                              ; preds = %105
  %107 = load ptr, ptr %30, align 8
  %108 = load i32, ptr %31, align 4
  %109 = insertvalue { ptr, i32 } poison, ptr %107, 0
  %110 = insertvalue { ptr, i32 } %109, i32 %108, 1
  resume { ptr, i32 } %110
}