; Function Attrs: mustprogress uwtable
define void @_ZN5Ipopt17RegisteredOptions16AddStringOption4ERKNSt7__cxx1112basic_stringIcSt11char_traitsIcESaIcEEES8_S8_S8_S8_S8_S8_S8_S8_S8_S8_S8_b(ptr noundef nonnull align 8 dereferenceable(128) %0, ptr noundef nonnull align 8 dereferenceable(32) %1, ptr noundef nonnull align 8 dereferenceable(32) %2, ptr noundef nonnull align 8 dereferenceable(32) %3, ptr noundef nonnull align 8 dereferenceable(32) %4, ptr noundef nonnull align 8 dereferenceable(32) %5, ptr noundef nonnull align 8 dereferenceable(32) %6, ptr noundef nonnull align 8 dereferenceable(32) %7, ptr noundef nonnull align 8 dereferenceable(32) %8, ptr noundef nonnull align 8 dereferenceable(32) %9, ptr noundef nonnull align 8 dereferenceable(32) %10, ptr noundef nonnull align 8 dereferenceable(32) %11, ptr noundef nonnull align 8 dereferenceable(32) %12, i1 noundef zeroext %13) unnamed_addr #3 align 2 personality ptr @__gxx_personality_v0 {
  %15 = alloca %"class.Ipopt::SmartPtr.21", align 8
  %16 = alloca i32, align 4
  call void @llvm.lifetime.start.p0(i64 8, ptr nonnull %15) #23
  %17 = tail call noalias noundef nonnull dereferenceable(224) ptr @_Znwm(i64 noundef 224) #27
  %18 = getelementptr inbounds nuw i8, ptr %0, i64 120
  %19 = getelementptr inbounds nuw i8, ptr %0, i64 112
  %20 = load i32, ptr %19, align 8, !tbaa !86
  %21 = add nsw i32 %20, 1
  store i32 %21, ptr %19, align 8, !tbaa !86
  invoke void @_ZN5Ipopt16RegisteredOptionC2ERKNSt7__cxx1112basic_stringIcSt11char_traitsIcESaIcEEES8_S8_RKNS_8SmartPtrINS_18RegisteredCategoryEEEib(ptr noundef nonnull align 8 dereferenceable(220) %17, ptr noundef nonnull align 8 dereferenceable(32) %1, ptr noundef nonnull align 8 dereferenceable(32) %2, ptr noundef nonnull align 8 dereferenceable(32) %12, ptr noundef nonnull align 8 dereferenceable(8) %18, i32 noundef %20, i1 noundef zeroext %13)
          to label %22 unwind label %58

22:                                               ; preds = %14
  %23 = getelementptr inbounds nuw i8, ptr %17, i64 8
  %24 = load i32, ptr %23, align 8, !tbaa !59
  %25 = add nsw i32 %24, 1
  store i32 %25, ptr %23, align 8, !tbaa !59
  store ptr %17, ptr %15, align 8, !tbaa !80
  call void @llvm.lifetime.start.p0(i64 4, ptr nonnull %16) #23
  store i32 2, ptr %16, align 4, !tbaa !96
  %26 = load ptr, ptr %17, align 8, !tbaa !32
  %27 = getelementptr inbounds nuw i8, ptr %26, i64 80
  %28 = load ptr, ptr %27, align 8
  invoke void %28(ptr noundef nonnull align 8 dereferenceable(220) %17, ptr noundef nonnull align 4 dereferenceable(4) %16)
          to label %29 unwind label %62

29:                                               ; preds = %22
  call void @llvm.lifetime.end.p0(i64 4, ptr nonnull %16) #23
  %30 = load ptr, ptr %17, align 8, !tbaa !32
  %31 = getelementptr inbounds nuw i8, ptr %30, i64 264
  %32 = load ptr, ptr %31, align 8
  invoke void %32(ptr noundef nonnull align 8 dereferenceable(220) %17, ptr noundef nonnull align 8 dereferenceable(32) %3)
          to label %33 unwind label %60

33:                                               ; preds = %29
  %34 = load ptr, ptr %17, align 8, !tbaa !32
  %35 = getelementptr inbounds nuw i8, ptr %34, i64 208
  %36 = load ptr, ptr %35, align 8
  invoke void %36(ptr noundef nonnull align 8 dereferenceable(220) %17, ptr noundef nonnull align 8 dereferenceable(32) %4, ptr noundef nonnull align 8 dereferenceable(32) %5)
          to label %37 unwind label %60

37:                                               ; preds = %33
  %38 = load ptr, ptr %17, align 8, !tbaa !32
  %39 = getelementptr inbounds nuw i8, ptr %38, i64 208
  %40 = load ptr, ptr %39, align 8
  invoke void %40(ptr noundef nonnull align 8 dereferenceable(220) %17, ptr noundef nonnull align 8 dereferenceable(32) %6, ptr noundef nonnull align 8 dereferenceable(32) %7)
          to label %41 unwind label %60

41:                                               ; preds = %37
  %42 = load ptr, ptr %17, align 8, !tbaa !32
  %43 = getelementptr inbounds nuw i8, ptr %42, i64 208
  %44 = load ptr, ptr %43, align 8
  invoke void %44(ptr noundef nonnull align 8 dereferenceable(220) %17, ptr noundef nonnull align 8 dereferenceable(32) %8, ptr noundef nonnull align 8 dereferenceable(32) %9)
          to label %45 unwind label %60

45:                                               ; preds = %41
  %46 = load ptr, ptr %17, align 8, !tbaa !32
  %47 = getelementptr inbounds nuw i8, ptr %46, i64 208
  %48 = load ptr, ptr %47, align 8
  invoke void %48(ptr noundef nonnull align 8 dereferenceable(220) %17, ptr noundef nonnull align 8 dereferenceable(32) %10, ptr noundef nonnull align 8 dereferenceable(32) %11)
          to label %49 unwind label %60

49:                                               ; preds = %45
  invoke void @_ZN5Ipopt17RegisteredOptions9AddOptionERKNS_8SmartPtrINS_16RegisteredOptionEEE(ptr noundef nonnull align 8 dereferenceable(128) %0, ptr noundef nonnull align 8 dereferenceable(8) %15)
          to label %50 unwind label %60

50:                                               ; preds = %49
  %51 = load i32, ptr %23, align 8, !tbaa !59
  %52 = add nsw i32 %51, -1
  store i32 %52, ptr %23, align 8, !tbaa !59
  %53 = icmp eq i32 %52, 0
  br i1 %53, label %54, label %_ZN5Ipopt8SmartPtrINS_16RegisteredOptionEED2Ev.exit

54:                                               ; preds = %50
  %55 = load ptr, ptr %17, align 8, !tbaa !32
  %56 = getelementptr inbounds nuw i8, ptr %55, i64 8
  %57 = load ptr, ptr %56, align 8
  call void %57(ptr noundef nonnull align 8 dereferenceable(220) %17) #23
  br label %_ZN5Ipopt8SmartPtrINS_16RegisteredOptionEED2Ev.exit

_ZN5Ipopt8SmartPtrINS_16RegisteredOptionEED2Ev.exit: ; preds = %50, %54
  call void @llvm.lifetime.end.p0(i64 8, ptr nonnull %15) #23
  ret void

58:                                               ; preds = %14
  %59 = landingpad { ptr, i32 }
          cleanup
  tail call void @_ZdlPvm(ptr noundef nonnull %17, i64 noundef 224) #24
  br label %_ZN5Ipopt8SmartPtrINS_16RegisteredOptionEED2Ev.exit20

60:                                               ; preds = %49, %45, %41, %37, %33, %29
  %61 = landingpad { ptr, i32 }
          cleanup
  br label %64

62:                                               ; preds = %22
  %63 = landingpad { ptr, i32 }
          cleanup
  call void @llvm.lifetime.end.p0(i64 4, ptr nonnull %16) #23
  br label %64

64:                                               ; preds = %60, %62
  %.pn = phi { ptr, i32 } [ %61, %60 ], [ %63, %62 ]
  %65 = load i32, ptr %23, align 8, !tbaa !59
  %66 = add nsw i32 %65, -1
  store i32 %66, ptr %23, align 8, !tbaa !59
  %67 = icmp eq i32 %66, 0
  br i1 %67, label %68, label %_ZN5Ipopt8SmartPtrINS_16RegisteredOptionEED2Ev.exit20

68:                                               ; preds = %64
  %69 = load ptr, ptr %17, align 8, !tbaa !32
  %70 = getelementptr inbounds nuw i8, ptr %69, i64 8
  %71 = load ptr, ptr %70, align 8
  call void %71(ptr noundef nonnull align 8 dereferenceable(220) %17) #23
  br label %_ZN5Ipopt8SmartPtrINS_16RegisteredOptionEED2Ev.exit20

_ZN5Ipopt8SmartPtrINS_16RegisteredOptionEED2Ev.exit20: ; preds = %68, %64, %58
  %.pn.pn = phi { ptr, i32 } [ %59, %58 ], [ %.pn, %64 ], [ %.pn, %68 ]
  call void @llvm.lifetime.end.p0(i64 8, ptr nonnull %15) #23
  resume { ptr, i32 } %.pn.pn
}